target datalayout = "e-m:e-p270:32:32-p271:32:32-p272:64:64-i64:64-i128:128-f80:128-n8:16:32:64-S128"
target triple = "x86_64-pc-linux-gnu"

%struct.print_stream = type { ptr, ptr }
%struct.output_ps = type { i8, ptr }

@.str.16 = private unnamed_addr constant [17 x i8] c"%d (%s) putline\0A\00", align 1

; Function Attrs: nounwind null_pointer_is_valid sspstrong uwtable
define internal void @ps_clean_string(ptr noundef %0, ptr noundef %1, i32 noundef %2) #10 {
  %4 = alloca ptr, align 8
  %5 = alloca ptr, align 8
  %6 = alloca i32, align 4
  %7 = alloca i32, align 4
  %8 = alloca i32, align 4
  %9 = alloca i8, align 1
  %10 = alloca i32, align 4
  store ptr %0, ptr %4, align 8
  store ptr %1, ptr %5, align 8
  store i32 %2, ptr %6, align 4
  call void @llvm.lifetime.start.p0(i64 4, ptr %7) #11
  call void @llvm.lifetime.start.p0(i64 4, ptr %8) #11
  call void @llvm.lifetime.start.p0(i64 1, ptr %9) #11
  %11 = load ptr, ptr %5, align 8
  %12 = icmp eq ptr %11, null
  br i1 %12, label %13, label %16

13:                                               ; preds = %3
  %14 = load ptr, ptr %4, align 8
  %15 = getelementptr i8, ptr %14, i64 0
  store i8 0, ptr %15, align 1
  store i32 1, ptr %10, align 4
  br label %58

16:                                               ; preds = %3
  store i32 0, ptr %7, align 4
  store i32 0, ptr %8, align 4
  br label %17

17:                                               ; preds = %52, %16
  %18 = load i32, ptr %8, align 4
  %19 = load i32, ptr %6, align 4
  %20 = icmp slt i32 %18, %19
  br i1 %20, label %21, label %57

21:                                               ; preds = %17
  %22 = load ptr, ptr %5, align 8
  %23 = load i32, ptr %7, align 4
  %24 = sext i32 %23 to i64
  %25 = getelementptr i8, ptr %22, i64 %24
  %26 = load i8, ptr %25, align 1
  store i8 %26, ptr %9, align 1
  %27 = load i8, ptr %9, align 1
  %28 = sext i8 %27 to i32
  switch i32 %28, label %40 [
    i32 40, label %29
    i32 41, label %29
    i32 92, label %29
  ]

29:                                               ; preds = %21, %21, %21
  %30 = load ptr, ptr %4, align 8
  %31 = load i32, ptr %8, align 4
  %32 = sext i32 %31 to i64
  %33 = getelementptr i8, ptr %30, i64 %32
  store i8 92, ptr %33, align 1
  %34 = load i8, ptr %9, align 1
  %35 = load ptr, ptr %4, align 8
  %36 = load i32, ptr %8, align 4
  %37 = add i32 %36, 1
  store i32 %37, ptr %8, align 4
  %38 = sext i32 %37 to i64
  %39 = getelementptr i8, ptr %35, i64 %38
  store i8 %34, ptr %39, align 1
  br label %46

40:                                               ; preds = %21
  %41 = load i8, ptr %9, align 1
  %42 = load ptr, ptr %4, align 8
  %43 = load i32, ptr %8, align 4
  %44 = sext i32 %43 to i64
  %45 = getelementptr i8, ptr %42, i64 %44
  store i8 %41, ptr %45, align 1
  br label %46

46:                                               ; preds = %40, %29
  %47 = load i8, ptr %9, align 1
  %48 = sext i8 %47 to i32
  %49 = icmp eq i32 %48, 0
  br i1 %49, label %50, label %51

50:                                               ; preds = %46
  br label %57

51:                                               ; preds = %46
  br label %52

52:                                               ; preds = %51
  %53 = load i32, ptr %7, align 4
  %54 = add i32 %53, 1
  store i32 %54, ptr %7, align 4
  %55 = load i32, ptr %8, align 4
  %56 = add i32 %55, 1
  store i32 %56, ptr %8, align 4
  br label %17, !llvm.loop !8

57:                                               ; preds = %50, %17
  store i32 0, ptr %10, align 4
  br label %58

58:                                               ; preds = %57, %13
  call void @llvm.lifetime.end.p0(i64 1, ptr %9) #11
  call void @llvm.lifetime.end.p0(i64 4, ptr %8) #11
  call void @llvm.lifetime.end.p0(i64 4, ptr %7) #11
  %59 = load i32, ptr %10, align 4
  switch i32 %59, label %61 [
    i32 0, label %60
    i32 1, label %60
  ]

60:                                               ; preds = %58, %58
  ret void

61:                                               ; preds = %58
  unreachable
}

; Function Attrs: null_pointer_is_valid sspstrong uwtable
define internal zeroext i1 @print_line_ps(ptr noundef %0, i32 noundef %1, ptr noundef %2) #0 {
  %4 = alloca ptr, align 8
  %5 = alloca i32, align 4
  %6 = alloca ptr, align 8
  %7 = alloca ptr, align 8
  %8 = alloca [256 x i8], align 16
  store ptr %0, ptr %4, align 8
  store i32 %1, ptr %5, align 4
  store ptr %2, ptr %6, align 8
  call void @llvm.lifetime.start.p0(i64 8, ptr %7) #11
  %9 = load ptr, ptr %4, align 8
  %10 = getelementptr inbounds nuw %struct.print_stream, ptr %9, i32 0, i32 1
  %11 = load ptr, ptr %10, align 8
  store ptr %11, ptr %7, align 8
  call void @llvm.lifetime.start.p0(i64 256, ptr %8) #11
  %12 = getelementptr inbounds [256 x i8], ptr %8, i64 0, i64 0
  %13 = load ptr, ptr %6, align 8
  call void @ps_clean_string(ptr noundef %12, ptr noundef %13, i32 noundef 256)
  %14 = load ptr, ptr %7, align 8
  %15 = getelementptr inbounds nuw %struct.output_ps, ptr %14, i32 0, i32 1
  %16 = load ptr, ptr %15, align 8
  %17 = load i32, ptr %5, align 4
  %18 = getelementptr inbounds [256 x i8], ptr %8, i64 0, i64 0
  %19 = call i32 (ptr, i32, ptr, ...) @__fprintf_chk(ptr noundef %16, i32 noundef 2, ptr noundef @.str.16, i32 noundef %17, ptr noundef %18)
  %20 = load ptr, ptr %7, align 8
  %21 = getelementptr inbounds nuw %struct.output_ps, ptr %20, i32 0, i32 1
  %22 = load ptr, ptr %21, align 8
  %23 = call i32 @ferror(ptr noundef %22) #11
  %24 = icmp ne i32 %23, 0
  %25 = xor i1 %24, true
  call void @llvm.lifetime.end.p0(i64 256, ptr %8) #11
  call void @llvm.lifetime.end.p0(i64 8, ptr %7) #11
  ret i1 %25
}